---
triple:          'arm64-apple-darwin'
binary-path:     '/Users/fqian/dev/cppProjects/keyboardOptimiser2/fqianKeyboardOptimiser2/src/finger'
relocations:
  - { offsetInCU: 0x26, offset: 0x26, size: 0x8, addend: 0x0, symName: __ZN6FingerC2Eiddd, symObjAddr: 0x0, symBinAddr: 0x1000020A0, symSize: 0x54 }
  - { offsetInCU: 0x2EBC, offset: 0x2EBC, size: 0x8, addend: 0x0, symName: __ZN6FingerC2Eiddd, symObjAddr: 0x0, symBinAddr: 0x1000020A0, symSize: 0x54 }
  - { offsetInCU: 0x2F1E, offset: 0x2F1E, size: 0x8, addend: 0x0, symName: __ZN6FingerC1Eiddd, symObjAddr: 0x54, symBinAddr: 0x1000020F4, symSize: 0x4C }
  - { offsetInCU: 0x2D57, offset: 0x5CDC, size: 0x8, addend: 0x0, symName: __ZNSt3__124__put_character_sequenceB8ue170006IwNS_11char_traitsIwEEEERNS_13basic_ostreamIT_T0_EES7_PKS4_m, symObjAddr: 0x2C4, symBinAddr: 0x100002404, symSize: 0x1F0 }
  - { offsetInCU: 0x4858, offset: 0x77DD, size: 0x8, addend: 0x0, symName: __ZNSt3__1lsB8ue170006IwNS_11char_traitsIwEEEERNS_13basic_ostreamIT_T0_EES7_PKS4_, symObjAddr: 0x18C, symBinAddr: 0x1000022CC, symSize: 0x48 }
  - { offsetInCU: 0x48A7, offset: 0x782C, size: 0x8, addend: 0x0, symName: __ZNSt3__1lsB8ue170006IwNS_11char_traitsIwEEEERNS_13basic_ostreamIT_T0_EES7_S4_, symObjAddr: 0x1D4, symBinAddr: 0x100002314, symSize: 0x34 }
  - { offsetInCU: 0x48F6, offset: 0x787B, size: 0x8, addend: 0x0, symName: __ZNSt3__14endlB8ue170006IwNS_11char_traitsIwEEEERNS_13basic_ostreamIT_T0_EES7_, symObjAddr: 0x234, symBinAddr: 0x100002374, symSize: 0x54 }
  - { offsetInCU: 0x4936, offset: 0x78BB, size: 0x8, addend: 0x0, symName: __ZNSt3__116__pad_and_outputB8ue170006IwNS_11char_traitsIwEEEENS_19ostreambuf_iteratorIT_T0_EES6_PKS4_S8_S8_RNS_8ios_baseES4_, symObjAddr: 0x518, symBinAddr: 0x100002658, symSize: 0x260 }
  - { offsetInCU: 0x69B4, offset: 0x9939, size: 0x8, addend: 0x0, symName: __ZNSt3__112__to_addressB8ue170006IKwEEPT_S3_, symObjAddr: 0xAA4, symBinAddr: 0x100002BE4, symSize: 0x14 }
  - { offsetInCU: 0x69E9, offset: 0x996E, size: 0x8, addend: 0x0, symName: __ZNSt3__130__libcpp_is_constant_evaluatedB8ue170006Ev, symObjAddr: 0xBD0, symBinAddr: 0x100002D10, symSize: 0xC }
  - { offsetInCU: 0x6A39, offset: 0x99BE, size: 0x8, addend: 0x0, symName: __ZNSt3__19use_facetB8ue170006INS_5ctypeIwEEEERKT_RKNS_6localeE, symObjAddr: 0xD84, symBinAddr: 0x100002EC4, symSize: 0x2C }
  - { offsetInCU: 0x6F5E, offset: 0x9EE3, size: 0x8, addend: 0x0, symName: __ZNSt3__118__constexpr_wcslenB8ue170006EPKw, symObjAddr: 0xE18, symBinAddr: 0x100002F58, symSize: 0x24 }
  - { offsetInCU: 0x9145, offset: 0xC0CA, size: 0x8, addend: 0x0, symName: __ZN3KeyC2Eiddwwi, symObjAddr: 0x0, symBinAddr: 0x100002140, symSize: 0x5C }
  - { offsetInCU: 0x91C3, offset: 0xC148, size: 0x8, addend: 0x0, symName: __ZN3KeyC1Eiddwwi, symObjAddr: 0x5C, symBinAddr: 0x10000219C, symSize: 0x5C }
  - { offsetInCU: 0x9241, offset: 0xC1C6, size: 0x8, addend: 0x0, symName: __ZNK3Key5printEv, symObjAddr: 0xB8, symBinAddr: 0x1000021F8, symSize: 0xD4 }
  - { offsetInCU: 0x9267, offset: 0xC1EC, size: 0x8, addend: 0x0, symName: __ZNSt3__113basic_ostreamIwNS_11char_traitsIwEEElsB8ue170006EPFRS3_S4_E, symObjAddr: 0x208, symBinAddr: 0x100002348, symSize: 0x2C }
  - { offsetInCU: 0x9299, offset: 0xC21E, size: 0x8, addend: 0x0, symName: __ZNK3Key9isRegularEw, symObjAddr: 0x288, symBinAddr: 0x1000023C8, symSize: 0x3C }
  - { offsetInCU: 0x92CD, offset: 0xC252, size: 0x8, addend: 0x0, symName: __ZNSt3__111char_traitsIwE6lengthB8ue170006EPKw, symObjAddr: 0x4B4, symBinAddr: 0x1000025F4, symSize: 0x48 }
  - { offsetInCU: 0x930E, offset: 0xC293, size: 0x8, addend: 0x0, symName: __ZNKSt3__113basic_ostreamIwNS_11char_traitsIwEEE6sentrycvbB8ue170006Ev, symObjAddr: 0x4FC, symBinAddr: 0x10000263C, symSize: 0x1C }
  - { offsetInCU: 0x9332, offset: 0xC2B7, size: 0x8, addend: 0x0, symName: __ZNSt3__119ostreambuf_iteratorIwNS_11char_traitsIwEEEC1B8ue170006ERNS_13basic_ostreamIwS2_EE, symObjAddr: 0x778, symBinAddr: 0x1000028B8, symSize: 0x34 }
  - { offsetInCU: 0x9368, offset: 0xC2ED, size: 0x8, addend: 0x0, symName: __ZNKSt3__18ios_base5flagsB8ue170006Ev, symObjAddr: 0x7AC, symBinAddr: 0x1000028EC, symSize: 0x18 }
  - { offsetInCU: 0x938E, offset: 0xC313, size: 0x8, addend: 0x0, symName: __ZNKSt3__19basic_iosIwNS_11char_traitsIwEEE4fillB8ue170006Ev, symObjAddr: 0x7C4, symBinAddr: 0x100002904, symSize: 0x5C }
  - { offsetInCU: 0x93B4, offset: 0xC339, size: 0x8, addend: 0x0, symName: __ZNKSt3__119ostreambuf_iteratorIwNS_11char_traitsIwEEE6failedB8ue170006Ev, symObjAddr: 0x820, symBinAddr: 0x100002960, symSize: 0x24 }
  - { offsetInCU: 0x93D8, offset: 0xC35D, size: 0x8, addend: 0x0, symName: __ZNSt3__19basic_iosIwNS_11char_traitsIwEEE8setstateB8ue170006Ej, symObjAddr: 0x844, symBinAddr: 0x100002984, symSize: 0x2C }
  - { offsetInCU: 0x940B, offset: 0xC390, size: 0x8, addend: 0x0, symName: __ZNKSt3__18ios_base5widthB8ue170006Ev, symObjAddr: 0x87C, symBinAddr: 0x1000029BC, symSize: 0x18 }
  - { offsetInCU: 0x9431, offset: 0xC3B6, size: 0x8, addend: 0x0, symName: __ZNSt3__115basic_streambufIwNS_11char_traitsIwEEE5sputnB8ue170006EPKwl, symObjAddr: 0x894, symBinAddr: 0x1000029D4, symSize: 0x3C }
  - { offsetInCU: 0x956F, offset: 0xC4F4, size: 0x8, addend: 0x0, symName: __ZNSt3__112basic_stringIwNS_11char_traitsIwEENS_9allocatorIwEEEC1B8ue170006Emw, symObjAddr: 0x8D0, symBinAddr: 0x100002A10, symSize: 0x3C }
  - { offsetInCU: 0x95B5, offset: 0xC53A, size: 0x8, addend: 0x0, symName: __ZNKSt3__112basic_stringIwNS_11char_traitsIwEENS_9allocatorIwEEE4dataB8ue170006Ev, symObjAddr: 0x90C, symBinAddr: 0x100002A4C, symSize: 0x28 }
  - { offsetInCU: 0x95D9, offset: 0xC55E, size: 0x8, addend: 0x0, symName: __ZNSt3__18ios_base5widthB8ue170006El, symObjAddr: 0x934, symBinAddr: 0x100002A74, symSize: 0x2C }
  - { offsetInCU: 0x961D, offset: 0xC5A2, size: 0x8, addend: 0x0, symName: __ZNSt3__112basic_stringIwNS_11char_traitsIwEENS_9allocatorIwEEEC2B8ue170006Emw, symObjAddr: 0x960, symBinAddr: 0x100002AA0, symSize: 0x4C }
  - { offsetInCU: 0x9668, offset: 0xC5ED, size: 0x8, addend: 0x0, symName: __ZNSt3__117__compressed_pairINS_12basic_stringIwNS_11char_traitsIwEENS_9allocatorIwEEE5__repES5_EC1B8ue170006INS_18__default_init_tagESA_EEOT_OT0_, symObjAddr: 0x9AC, symBinAddr: 0x100002AEC, symSize: 0x3C }
  - { offsetInCU: 0x96BE, offset: 0xC643, size: 0x8, addend: 0x0, symName: __ZNSt3__117__compressed_pairINS_12basic_stringIwNS_11char_traitsIwEENS_9allocatorIwEEE5__repES5_EC2B8ue170006INS_18__default_init_tagESA_EEOT_OT0_, symObjAddr: 0x9E8, symBinAddr: 0x100002B28, symSize: 0x3C }
  - { offsetInCU: 0x9714, offset: 0xC699, size: 0x8, addend: 0x0, symName: __ZNSt3__122__compressed_pair_elemINS_12basic_stringIwNS_11char_traitsIwEENS_9allocatorIwEEE5__repELi0ELb0EEC2B8ue170006ENS_18__default_init_tagE, symObjAddr: 0xA24, symBinAddr: 0x100002B64, symSize: 0x14 }
  - { offsetInCU: 0x9746, offset: 0xC6CB, size: 0x8, addend: 0x0, symName: __ZNSt3__122__compressed_pair_elemINS_9allocatorIwEELi1ELb1EEC2B8ue170006ENS_18__default_init_tagE, symObjAddr: 0xA38, symBinAddr: 0x100002B78, symSize: 0x2C }
  - { offsetInCU: 0x9778, offset: 0xC6FD, size: 0x8, addend: 0x0, symName: __ZNSt3__19allocatorIwEC2B8ue170006Ev, symObjAddr: 0xA64, symBinAddr: 0x100002BA4, symSize: 0x2C }
  - { offsetInCU: 0x97A0, offset: 0xC725, size: 0x8, addend: 0x0, symName: __ZNSt3__116__non_trivial_ifILb1ENS_9allocatorIwEEEC2B8ue170006Ev, symObjAddr: 0xA90, symBinAddr: 0x100002BD0, symSize: 0x14 }
  - { offsetInCU: 0x97C8, offset: 0xC74D, size: 0x8, addend: 0x0, symName: __ZNKSt3__112basic_stringIwNS_11char_traitsIwEENS_9allocatorIwEEE13__get_pointerB8ue170006Ev, symObjAddr: 0xAB8, symBinAddr: 0x100002BF8, symSize: 0x54 }
  - { offsetInCU: 0x97EC, offset: 0xC771, size: 0x8, addend: 0x0, symName: __ZNKSt3__112basic_stringIwNS_11char_traitsIwEENS_9allocatorIwEEE9__is_longB8ue170006Ev, symObjAddr: 0xB0C, symBinAddr: 0x100002C4C, symSize: 0x74 }
  - { offsetInCU: 0x9810, offset: 0xC795, size: 0x8, addend: 0x0, symName: __ZNKSt3__112basic_stringIwNS_11char_traitsIwEENS_9allocatorIwEEE18__get_long_pointerB8ue170006Ev, symObjAddr: 0xB80, symBinAddr: 0x100002CC0, symSize: 0x28 }
  - { offsetInCU: 0x9834, offset: 0xC7B9, size: 0x8, addend: 0x0, symName: __ZNKSt3__112basic_stringIwNS_11char_traitsIwEENS_9allocatorIwEEE19__get_short_pointerB8ue170006Ev, symObjAddr: 0xBA8, symBinAddr: 0x100002CE8, symSize: 0x28 }
  - { offsetInCU: 0x9858, offset: 0xC7DD, size: 0x8, addend: 0x0, symName: __ZNKSt3__117__compressed_pairINS_12basic_stringIwNS_11char_traitsIwEENS_9allocatorIwEEE5__repES5_E5firstB8ue170006Ev, symObjAddr: 0xBDC, symBinAddr: 0x100002D1C, symSize: 0x24 }
  - { offsetInCU: 0x987C, offset: 0xC801, size: 0x8, addend: 0x0, symName: __ZNKSt3__122__compressed_pair_elemINS_12basic_stringIwNS_11char_traitsIwEENS_9allocatorIwEEE5__repELi0ELb0EE5__getB8ue170006Ev, symObjAddr: 0xC00, symBinAddr: 0x100002D40, symSize: 0x14 }
  - { offsetInCU: 0x98A0, offset: 0xC825, size: 0x8, addend: 0x0, symName: __ZNSt3__114pointer_traitsIPKwE10pointer_toB8ue170006ERS1_, symObjAddr: 0xC14, symBinAddr: 0x100002D54, symSize: 0x14 }
  - { offsetInCU: 0x98C2, offset: 0xC847, size: 0x8, addend: 0x0, symName: __ZNSt3__119ostreambuf_iteratorIwNS_11char_traitsIwEEEC2B8ue170006ERNS_13basic_ostreamIwS2_EE, symObjAddr: 0xC28, symBinAddr: 0x100002D68, symSize: 0x68 }
  - { offsetInCU: 0x98F8, offset: 0xC87D, size: 0x8, addend: 0x0, symName: __ZNKSt3__19basic_iosIwNS_11char_traitsIwEEE5rdbufB8ue170006Ev, symObjAddr: 0xC90, symBinAddr: 0x100002DD0, symSize: 0x24 }
  - { offsetInCU: 0x991E, offset: 0xC8A3, size: 0x8, addend: 0x0, symName: __ZNKSt3__18ios_base5rdbufB8ue170006Ev, symObjAddr: 0xCB4, symBinAddr: 0x100002DF4, symSize: 0x18 }
  - { offsetInCU: 0x9942, offset: 0xC8C7, size: 0x8, addend: 0x0, symName: __ZNSt3__111char_traitsIwE11eq_int_typeB8ue170006Eii, symObjAddr: 0xCCC, symBinAddr: 0x100002E0C, symSize: 0x28 }
  - { offsetInCU: 0x9974, offset: 0xC8F9, size: 0x8, addend: 0x0, symName: __ZNSt3__111char_traitsIwE3eofB8ue170006Ev, symObjAddr: 0xCF4, symBinAddr: 0x100002E34, symSize: 0x8 }
  - { offsetInCU: 0x9987, offset: 0xC90C, size: 0x8, addend: 0x0, symName: __ZNKSt3__19basic_iosIwNS_11char_traitsIwEEE5widenB8ue170006Ec, symObjAddr: 0xCFC, symBinAddr: 0x100002E3C, symSize: 0x88 }
  - { offsetInCU: 0x99E9, offset: 0xC96E, size: 0x8, addend: 0x0, symName: __ZNKSt3__15ctypeIwE5widenB8ue170006Ec, symObjAddr: 0xDB0, symBinAddr: 0x100002EF0, symSize: 0x34 }
  - { offsetInCU: 0x9A1C, offset: 0xC9A1, size: 0x8, addend: 0x0, symName: __ZNSt3__18ios_base8setstateB8ue170006Ej, symObjAddr: 0xDE4, symBinAddr: 0x100002F24, symSize: 0x34 }
  - { offsetInCU: 0x28A2, offset: 0xF2D2, size: 0x8, addend: 0x0, symName: __ZNSt3__124__put_character_sequenceB8ue170006IcNS_11char_traitsIcEEEERNS_13basic_ostreamIT_T0_EES7_PKS4_m, symObjAddr: 0x84, symBinAddr: 0x100003000, symSize: 0x1F4 }
  - { offsetInCU: 0x41B4, offset: 0x10BE4, size: 0x8, addend: 0x0, symName: __ZNSt3__1lsB8ue170006INS_11char_traitsIcEEEERNS_13basic_ostreamIcT_EES6_PKc, symObjAddr: 0x3C, symBinAddr: 0x100002FB8, symSize: 0x48 }
  - { offsetInCU: 0x41FA, offset: 0x10C2A, size: 0x8, addend: 0x0, symName: __ZNSt3__116__pad_and_outputB8ue170006IcNS_11char_traitsIcEEEENS_19ostreambuf_iteratorIT_T0_EES6_PKS4_S8_S8_RNS_8ios_baseES4_, symObjAddr: 0x2DC, symBinAddr: 0x100003258, symSize: 0x248 }
  - { offsetInCU: 0x42C9, offset: 0x10CF9, size: 0x8, addend: 0x0, symName: __ZNSt3__112__to_addressB8ue170006IKcEEPT_S3_, symObjAddr: 0x858, symBinAddr: 0x10000376C, symSize: 0x14 }
  - { offsetInCU: 0x4331, offset: 0x10D61, size: 0x8, addend: 0x0, symName: __ZNSt3__19use_facetB8ue170006INS_5ctypeIcEEEERKT_RKNS_6localeE, symObjAddr: 0xB3C, symBinAddr: 0x100003A2C, symSize: 0x2C }
  - { offsetInCU: 0x470F, offset: 0x1113F, size: 0x8, addend: 0x0, symName: __ZNSt3__118__constexpr_strlenB8ue170006EPKc, symObjAddr: 0xBD4, symBinAddr: 0x100003A90, symSize: 0x24 }
  - { offsetInCU: 0x6763, offset: 0x13193, size: 0x8, addend: 0x0, symName: _main, symObjAddr: 0x0, symBinAddr: 0x100002F7C, symSize: 0x3C }
  - { offsetInCU: 0x677C, offset: 0x131AC, size: 0x8, addend: 0x0, symName: __ZNSt3__111char_traitsIcE6lengthB8ue170006EPKc, symObjAddr: 0x278, symBinAddr: 0x1000031F4, symSize: 0x48 }
  - { offsetInCU: 0x67BC, offset: 0x131EC, size: 0x8, addend: 0x0, symName: __ZNKSt3__113basic_ostreamIcNS_11char_traitsIcEEE6sentrycvbB8ue170006Ev, symObjAddr: 0x2C0, symBinAddr: 0x10000323C, symSize: 0x1C }
  - { offsetInCU: 0x67E0, offset: 0x13210, size: 0x8, addend: 0x0, symName: __ZNSt3__119ostreambuf_iteratorIcNS_11char_traitsIcEEEC1B8ue170006ERNS_13basic_ostreamIcS2_EE, symObjAddr: 0x524, symBinAddr: 0x1000034A0, symSize: 0x34 }
  - { offsetInCU: 0x6816, offset: 0x13246, size: 0x8, addend: 0x0, symName: __ZNKSt3__19basic_iosIcNS_11char_traitsIcEEE4fillB8ue170006Ev, symObjAddr: 0x570, symBinAddr: 0x1000034D4, symSize: 0x64 }
  - { offsetInCU: 0x683C, offset: 0x1326C, size: 0x8, addend: 0x0, symName: __ZNKSt3__119ostreambuf_iteratorIcNS_11char_traitsIcEEE6failedB8ue170006Ev, symObjAddr: 0x5D4, symBinAddr: 0x100003538, symSize: 0x24 }
  - { offsetInCU: 0x6860, offset: 0x13290, size: 0x8, addend: 0x0, symName: __ZNSt3__19basic_iosIcNS_11char_traitsIcEEE8setstateB8ue170006Ej, symObjAddr: 0x5F8, symBinAddr: 0x10000355C, symSize: 0x2C }
  - { offsetInCU: 0x6893, offset: 0x132C3, size: 0x8, addend: 0x0, symName: __ZNSt3__115basic_streambufIcNS_11char_traitsIcEEE5sputnB8ue170006EPKcl, symObjAddr: 0x648, symBinAddr: 0x100003588, symSize: 0x3C }
  - { offsetInCU: 0x68D3, offset: 0x13303, size: 0x8, addend: 0x0, symName: __ZNSt3__112basic_stringIcNS_11char_traitsIcEENS_9allocatorIcEEEC1B8ue170006Emc, symObjAddr: 0x684, symBinAddr: 0x1000035C4, symSize: 0x3C }
  - { offsetInCU: 0x6919, offset: 0x13349, size: 0x8, addend: 0x0, symName: __ZNKSt3__112basic_stringIcNS_11char_traitsIcEENS_9allocatorIcEEE4dataB8ue170006Ev, symObjAddr: 0x6C0, symBinAddr: 0x100003600, symSize: 0x28 }
  - { offsetInCU: 0x693D, offset: 0x1336D, size: 0x8, addend: 0x0, symName: __ZNSt3__112basic_stringIcNS_11char_traitsIcEENS_9allocatorIcEEEC2B8ue170006Emc, symObjAddr: 0x714, symBinAddr: 0x100003628, symSize: 0x4C }
  - { offsetInCU: 0x6988, offset: 0x133B8, size: 0x8, addend: 0x0, symName: __ZNSt3__117__compressed_pairINS_12basic_stringIcNS_11char_traitsIcEENS_9allocatorIcEEE5__repES5_EC1B8ue170006INS_18__default_init_tagESA_EEOT_OT0_, symObjAddr: 0x760, symBinAddr: 0x100003674, symSize: 0x3C }
  - { offsetInCU: 0x69DE, offset: 0x1340E, size: 0x8, addend: 0x0, symName: __ZNSt3__117__compressed_pairINS_12basic_stringIcNS_11char_traitsIcEENS_9allocatorIcEEE5__repES5_EC2B8ue170006INS_18__default_init_tagESA_EEOT_OT0_, symObjAddr: 0x79C, symBinAddr: 0x1000036B0, symSize: 0x3C }
  - { offsetInCU: 0x6A34, offset: 0x13464, size: 0x8, addend: 0x0, symName: __ZNSt3__122__compressed_pair_elemINS_12basic_stringIcNS_11char_traitsIcEENS_9allocatorIcEEE5__repELi0ELb0EEC2B8ue170006ENS_18__default_init_tagE, symObjAddr: 0x7D8, symBinAddr: 0x1000036EC, symSize: 0x14 }
  - { offsetInCU: 0x6A66, offset: 0x13496, size: 0x8, addend: 0x0, symName: __ZNSt3__122__compressed_pair_elemINS_9allocatorIcEELi1ELb1EEC2B8ue170006ENS_18__default_init_tagE, symObjAddr: 0x7EC, symBinAddr: 0x100003700, symSize: 0x2C }
  - { offsetInCU: 0x6A98, offset: 0x134C8, size: 0x8, addend: 0x0, symName: __ZNSt3__19allocatorIcEC2B8ue170006Ev, symObjAddr: 0x818, symBinAddr: 0x10000372C, symSize: 0x2C }
  - { offsetInCU: 0x6AC0, offset: 0x134F0, size: 0x8, addend: 0x0, symName: __ZNSt3__116__non_trivial_ifILb1ENS_9allocatorIcEEEC2B8ue170006Ev, symObjAddr: 0x844, symBinAddr: 0x100003758, symSize: 0x14 }
  - { offsetInCU: 0x6AE8, offset: 0x13518, size: 0x8, addend: 0x0, symName: __ZNKSt3__112basic_stringIcNS_11char_traitsIcEENS_9allocatorIcEEE13__get_pointerB8ue170006Ev, symObjAddr: 0x86C, symBinAddr: 0x100003780, symSize: 0x54 }
  - { offsetInCU: 0x6B0C, offset: 0x1353C, size: 0x8, addend: 0x0, symName: __ZNKSt3__112basic_stringIcNS_11char_traitsIcEENS_9allocatorIcEEE9__is_longB8ue170006Ev, symObjAddr: 0x8C0, symBinAddr: 0x1000037D4, symSize: 0x74 }
  - { offsetInCU: 0x6B30, offset: 0x13560, size: 0x8, addend: 0x0, symName: __ZNKSt3__112basic_stringIcNS_11char_traitsIcEENS_9allocatorIcEEE18__get_long_pointerB8ue170006Ev, symObjAddr: 0x934, symBinAddr: 0x100003848, symSize: 0x28 }
  - { offsetInCU: 0x6B54, offset: 0x13584, size: 0x8, addend: 0x0, symName: __ZNKSt3__112basic_stringIcNS_11char_traitsIcEENS_9allocatorIcEEE19__get_short_pointerB8ue170006Ev, symObjAddr: 0x95C, symBinAddr: 0x100003870, symSize: 0x28 }
  - { offsetInCU: 0x6B78, offset: 0x135A8, size: 0x8, addend: 0x0, symName: __ZNKSt3__117__compressed_pairINS_12basic_stringIcNS_11char_traitsIcEENS_9allocatorIcEEE5__repES5_E5firstB8ue170006Ev, symObjAddr: 0x990, symBinAddr: 0x100003898, symSize: 0x24 }
  - { offsetInCU: 0x6B9C, offset: 0x135CC, size: 0x8, addend: 0x0, symName: __ZNKSt3__122__compressed_pair_elemINS_12basic_stringIcNS_11char_traitsIcEENS_9allocatorIcEEE5__repELi0ELb0EE5__getB8ue170006Ev, symObjAddr: 0x9B4, symBinAddr: 0x1000038BC, symSize: 0x14 }
  - { offsetInCU: 0x6BC0, offset: 0x135F0, size: 0x8, addend: 0x0, symName: __ZNSt3__114pointer_traitsIPKcE10pointer_toB8ue170006ERS1_, symObjAddr: 0x9C8, symBinAddr: 0x1000038D0, symSize: 0x14 }
  - { offsetInCU: 0x6BE2, offset: 0x13612, size: 0x8, addend: 0x0, symName: __ZNSt3__119ostreambuf_iteratorIcNS_11char_traitsIcEEEC2B8ue170006ERNS_13basic_ostreamIcS2_EE, symObjAddr: 0x9DC, symBinAddr: 0x1000038E4, symSize: 0x68 }
  - { offsetInCU: 0x6C18, offset: 0x13648, size: 0x8, addend: 0x0, symName: __ZNKSt3__19basic_iosIcNS_11char_traitsIcEEE5rdbufB8ue170006Ev, symObjAddr: 0xA44, symBinAddr: 0x10000394C, symSize: 0x24 }
  - { offsetInCU: 0x6C3E, offset: 0x1366E, size: 0x8, addend: 0x0, symName: __ZNSt3__111char_traitsIcE11eq_int_typeB8ue170006Eii, symObjAddr: 0xA80, symBinAddr: 0x100003970, symSize: 0x28 }
  - { offsetInCU: 0x6C70, offset: 0x136A0, size: 0x8, addend: 0x0, symName: __ZNSt3__111char_traitsIcE3eofB8ue170006Ev, symObjAddr: 0xAA8, symBinAddr: 0x100003998, symSize: 0x8 }
  - { offsetInCU: 0x6C83, offset: 0x136B3, size: 0x8, addend: 0x0, symName: __ZNKSt3__19basic_iosIcNS_11char_traitsIcEEE5widenB8ue170006Ec, symObjAddr: 0xAB0, symBinAddr: 0x1000039A0, symSize: 0x8C }
  - { offsetInCU: 0x6CEA, offset: 0x1371A, size: 0x8, addend: 0x0, symName: __ZNKSt3__15ctypeIcE5widenB8ue170006Ec, symObjAddr: 0xB68, symBinAddr: 0x100003A58, symSize: 0x38 }
...
